target datalayout = "e-m:e-p270:32:32-p271:32:32-p272:64:64-i64:64-i128:128-f80:128-n8:16:32:64-S128"
target triple = "x86_64-pc-linux-gnu"

; Function Attrs: nounwind uwtable
define hidden void @ScaleAddRow_16_C(ptr noundef %0, ptr noundef %1, i32 noundef %2) #0 {
  %4 = alloca ptr, align 8
  %5 = alloca ptr, align 8
  %6 = alloca i32, align 4
  %7 = alloca i32, align 4
  store ptr %0, ptr %4, align 8
  store ptr %1, ptr %5, align 8
  store i32 %2, ptr %6, align 4
  store i32 0, ptr %7, align 4
  br label %8

8:                                                ; preds = %34, %3
  %9 = load i32, ptr %7, align 4
  %10 = load i32, ptr %6, align 4
  %11 = sub nsw i32 %10, 1
  %12 = icmp slt i32 %9, %11
  br i1 %12, label %13, label %37

13:                                               ; preds = %8
  %14 = load ptr, ptr %4, align 8
  %15 = getelementptr inbounds i16, ptr %14, i64 0
  %16 = load i16, ptr %15, align 2
  %17 = zext i16 %16 to i32
  %18 = load ptr, ptr %5, align 8
  %19 = getelementptr inbounds i32, ptr %18, i64 0
  %20 = load i32, ptr %19, align 4
  %21 = add i32 %20, %17
  store i32 %21, ptr %19, align 4
  %22 = load ptr, ptr %4, align 8
  %23 = getelementptr inbounds i16, ptr %22, i64 1
  %24 = load i16, ptr %23, align 2
  %25 = zext i16 %24 to i32
  %26 = load ptr, ptr %5, align 8
  %27 = getelementptr inbounds i32, ptr %26, i64 1
  %28 = load i32, ptr %27, align 4
  %29 = add i32 %28, %25
  store i32 %29, ptr %27, align 4
  %30 = load ptr, ptr %4, align 8
  %31 = getelementptr inbounds i16, ptr %30, i64 2
  store ptr %31, ptr %4, align 8
  %32 = load ptr, ptr %5, align 8
  %33 = getelementptr inbounds i32, ptr %32, i64 2
  store ptr %33, ptr %5, align 8
  br label %34

34:                                               ; preds = %13
  %35 = load i32, ptr %7, align 4
  %36 = add nsw i32 %35, 2
  store i32 %36, ptr %7, align 4
  br label %8, !llvm.loop !18

37:                                               ; preds = %8
  %38 = load i32, ptr %6, align 4
  %39 = and i32 %38, 1
  %40 = icmp ne i32 %39, 0
  br i1 %40, label %41, label %50

41:                                               ; preds = %37
  %42 = load ptr, ptr %4, align 8
  %43 = getelementptr inbounds i16, ptr %42, i64 0
  %44 = load i16, ptr %43, align 2
  %45 = zext i16 %44 to i32
  %46 = load ptr, ptr %5, align 8
  %47 = getelementptr inbounds i32, ptr %46, i64 0
  %48 = load i32, ptr %47, align 4
  %49 = add i32 %48, %45
  store i32 %49, ptr %47, align 4
  br label %50

50:                                               ; preds = %41, %37
  ret void
}