; Function Attrs: nofree norecurse nosync nounwind memory(argmem: readwrite) uwtable
define hidden void @ScaleAddRow_16_C(ptr noundef readonly captures(none) %0, ptr noundef captures(none) %1, i32 noundef %2) local_unnamed_addr #0 {
  %4 = add nsw i32 %2, -1
  %5 = icmp sgt i32 %2, 1
  br i1 %5, label %.lr.ph, label %._crit_edge

.lr.ph:                                           ; preds = %3, %.lr.ph
  %.015 = phi i32 [ %18, %.lr.ph ], [ 0, %3 ]
  %.01114 = phi ptr [ %16, %.lr.ph ], [ %0, %3 ]
  %.01213 = phi ptr [ %17, %.lr.ph ], [ %1, %3 ]
  %6 = load i16, ptr %.01114, align 2
  %7 = zext i16 %6 to i32
  %8 = load i32, ptr %.01213, align 4
  %9 = add i32 %8, %7
  store i32 %9, ptr %.01213, align 4
  %10 = getelementptr inbounds nuw i8, ptr %.01114, i64 2
  %11 = load i16, ptr %10, align 2
  %12 = zext i16 %11 to i32
  %13 = getelementptr inbounds nuw i8, ptr %.01213, i64 4
  %14 = load i32, ptr %13, align 4
  %15 = add i32 %14, %12
  store i32 %15, ptr %13, align 4
  %16 = getelementptr inbounds nuw i8, ptr %.01114, i64 4
  %17 = getelementptr inbounds nuw i8, ptr %.01213, i64 8
  %18 = add nuw nsw i32 %.015, 2
  %19 = icmp slt i32 %18, %4
  br i1 %19, label %.lr.ph, label %._crit_edge, !llvm.loop !18

._crit_edge:                                      ; preds = %.lr.ph, %3
  %.012.lcssa = phi ptr [ %1, %3 ], [ %17, %.lr.ph ]
  %.011.lcssa = phi ptr [ %0, %3 ], [ %16, %.lr.ph ]
  %20 = and i32 %2, 1
  %.not = icmp eq i32 %20, 0
  br i1 %.not, label %26, label %21

21:                                               ; preds = %._crit_edge
  %22 = load i16, ptr %.011.lcssa, align 2
  %23 = zext i16 %22 to i32
  %24 = load i32, ptr %.012.lcssa, align 4
  %25 = add i32 %24, %23
  store i32 %25, ptr %.012.lcssa, align 4
  br label %26

26:                                               ; preds = %21, %._crit_edge
  ret void
}